target datalayout = "e-m:e-p270:32:32-p271:32:32-p272:64:64-i64:64-i128:128-f80:128-n8:16:32:64-S128"
target triple = "x86_64-pc-linux-gnu"

%struct.UCPTrie = type { ptr, %union.UCPTrieData, i32, i32, i32, i16, i8, i8, i32, i16, i16, i32, i32 }
%union.UCPTrieData = type { ptr }
%struct.UCPTrieHeader = type { i32, i16, i16, i16, i16, i16, i16 }

; Function Attrs: inlinehint mustprogress nounwind uwtable
define internal noundef signext i8 @_ZL9U_FAILURE10UErrorCode(i32 noundef %0) #1 {
  %2 = alloca i32, align 4
  store i32 %0, ptr %2, align 4, !tbaa !15
  %3 = load i32, ptr %2, align 4, !tbaa !15
  %4 = icmp sgt i32 %3, 0
  %5 = zext i1 %4 to i8
  ret i8 %5
}

; Function Attrs: mustprogress uwtable
define i32 @ucptrie_toBinary_77(ptr noundef %0, ptr noundef %1, i32 noundef %2, ptr noundef %3) #0 {
  %5 = alloca i32, align 4
  %6 = alloca ptr, align 8
  %7 = alloca ptr, align 8
  %8 = alloca i32, align 4
  %9 = alloca ptr, align 8
  %10 = alloca i32, align 4
  %11 = alloca i32, align 4
  %12 = alloca i32, align 4
  %13 = alloca i32, align 4
  %14 = alloca ptr, align 8
  %15 = alloca ptr, align 8
  store ptr %0, ptr %6, align 8, !tbaa !38
  store ptr %1, ptr %7, align 8, !tbaa !9
  store i32 %2, ptr %8, align 4, !tbaa !11
  store ptr %3, ptr %9, align 8, !tbaa !9
  %16 = load ptr, ptr %9, align 8, !tbaa !9
  %17 = load i32, ptr %16, align 4, !tbaa !15
  %18 = call noundef signext i8 @_ZL9U_FAILURE10UErrorCode(i32 noundef %17)
  %19 = icmp ne i8 %18, 0
  br i1 %19, label %20, label %21

20:                                               ; preds = %4
  store i32 0, ptr %5, align 4
  br label %214

21:                                               ; preds = %4
  call void @llvm.lifetime.start.p0(i64 4, ptr %10) #9
  %22 = load ptr, ptr %6, align 8, !tbaa !38
  %23 = getelementptr inbounds nuw %struct.UCPTrie, ptr %22, i32 0, i32 6
  %24 = load i8, ptr %23, align 2, !tbaa !36
  %25 = sext i8 %24 to i32
  store i32 %25, ptr %10, align 4, !tbaa !3
  call void @llvm.lifetime.start.p0(i64 4, ptr %11) #9
  %26 = load ptr, ptr %6, align 8, !tbaa !38
  %27 = getelementptr inbounds nuw %struct.UCPTrie, ptr %26, i32 0, i32 7
  %28 = load i8, ptr %27, align 1, !tbaa !37
  %29 = sext i8 %28 to i32
  store i32 %29, ptr %11, align 4, !tbaa !7
  %30 = load i32, ptr %10, align 4, !tbaa !3
  %31 = icmp slt i32 %30, 0
  br i1 %31, label %55, label %32

32:                                               ; preds = %21
  %33 = load i32, ptr %10, align 4, !tbaa !3
  %34 = icmp slt i32 1, %33
  br i1 %34, label %55, label %35

35:                                               ; preds = %32
  %36 = load i32, ptr %11, align 4, !tbaa !7
  %37 = icmp slt i32 %36, 0
  br i1 %37, label %55, label %38

38:                                               ; preds = %35
  %39 = load i32, ptr %11, align 4, !tbaa !7
  %40 = icmp slt i32 2, %39
  br i1 %40, label %55, label %41

41:                                               ; preds = %38
  %42 = load i32, ptr %8, align 4, !tbaa !11
  %43 = icmp slt i32 %42, 0
  br i1 %43, label %55, label %44

44:                                               ; preds = %41
  %45 = load i32, ptr %8, align 4, !tbaa !11
  %46 = icmp sgt i32 %45, 0
  br i1 %46, label %47, label %57

47:                                               ; preds = %44
  %48 = load ptr, ptr %7, align 8, !tbaa !9
  %49 = icmp eq ptr %48, null
  br i1 %49, label %55, label %50

50:                                               ; preds = %47
  %51 = load ptr, ptr %7, align 8, !tbaa !9
  %52 = ptrtoint ptr %51 to i64
  %53 = and i64 %52, 3
  %54 = icmp ne i64 %53, 0
  br i1 %54, label %55, label %57

55:                                               ; preds = %50, %47, %41, %38, %35, %32, %21
  %56 = load ptr, ptr %9, align 8, !tbaa !9
  store i32 1, ptr %56, align 4, !tbaa !15
  store i32 0, ptr %5, align 4
  store i32 1, ptr %12, align 4
  br label %213

57:                                               ; preds = %50, %44
  call void @llvm.lifetime.start.p0(i64 4, ptr %13) #9
  %58 = load ptr, ptr %6, align 8, !tbaa !38
  %59 = getelementptr inbounds nuw %struct.UCPTrie, ptr %58, i32 0, i32 2
  %60 = load i32, ptr %59, align 8, !tbaa !24
  %61 = mul nsw i32 %60, 2
  %62 = add nsw i32 16, %61
  store i32 %62, ptr %13, align 4, !tbaa !11
  %63 = load i32, ptr %11, align 4, !tbaa !7
  switch i32 %63, label %84 [
    i32 0, label %64
    i32 1, label %71
    i32 2, label %78
  ]

64:                                               ; preds = %57
  %65 = load ptr, ptr %6, align 8, !tbaa !38
  %66 = getelementptr inbounds nuw %struct.UCPTrie, ptr %65, i32 0, i32 3
  %67 = load i32, ptr %66, align 4, !tbaa !28
  %68 = mul nsw i32 %67, 2
  %69 = load i32, ptr %13, align 4, !tbaa !11
  %70 = add nsw i32 %69, %68
  store i32 %70, ptr %13, align 4, !tbaa !11
  br label %85

71:                                               ; preds = %57
  %72 = load ptr, ptr %6, align 8, !tbaa !38
  %73 = getelementptr inbounds nuw %struct.UCPTrie, ptr %72, i32 0, i32 3
  %74 = load i32, ptr %73, align 4, !tbaa !28
  %75 = mul nsw i32 %74, 4
  %76 = load i32, ptr %13, align 4, !tbaa !11
  %77 = add nsw i32 %76, %75
  store i32 %77, ptr %13, align 4, !tbaa !11
  br label %85

78:                                               ; preds = %57
  %79 = load ptr, ptr %6, align 8, !tbaa !38
  %80 = getelementptr inbounds nuw %struct.UCPTrie, ptr %79, i32 0, i32 3
  %81 = load i32, ptr %80, align 4, !tbaa !28
  %82 = load i32, ptr %13, align 4, !tbaa !11
  %83 = add nsw i32 %82, %81
  store i32 %83, ptr %13, align 4, !tbaa !11
  br label %85

84:                                               ; preds = %57
  br label %85

85:                                               ; preds = %84, %78, %71, %64
  %86 = load i32, ptr %8, align 4, !tbaa !11
  %87 = load i32, ptr %13, align 4, !tbaa !11
  %88 = icmp slt i32 %86, %87
  br i1 %88, label %89, label %92

89:                                               ; preds = %85
  %90 = load ptr, ptr %9, align 8, !tbaa !9
  store i32 15, ptr %90, align 4, !tbaa !15
  %91 = load i32, ptr %13, align 4, !tbaa !11
  store i32 %91, ptr %5, align 4
  store i32 1, ptr %12, align 4
  br label %212

92:                                               ; preds = %85
  call void @llvm.lifetime.start.p0(i64 8, ptr %14) #9
  %93 = load ptr, ptr %7, align 8, !tbaa !9
  store ptr %93, ptr %14, align 8, !tbaa !45
  call void @llvm.lifetime.start.p0(i64 8, ptr %15) #9
  %94 = load ptr, ptr %14, align 8, !tbaa !45
  store ptr %94, ptr %15, align 8, !tbaa !17
  %95 = load ptr, ptr %15, align 8, !tbaa !17
  %96 = getelementptr inbounds nuw %struct.UCPTrieHeader, ptr %95, i32 0, i32 0
  store i32 1416784179, ptr %96, align 4, !tbaa !19
  %97 = load ptr, ptr %6, align 8, !tbaa !38
  %98 = getelementptr inbounds nuw %struct.UCPTrie, ptr %97, i32 0, i32 3
  %99 = load i32, ptr %98, align 4, !tbaa !28
  %100 = and i32 %99, 983040
  %101 = ashr i32 %100, 4
  %102 = load ptr, ptr %6, align 8, !tbaa !38
  %103 = getelementptr inbounds nuw %struct.UCPTrie, ptr %102, i32 0, i32 11
  %104 = load i32, ptr %103, align 8, !tbaa !32
  %105 = and i32 %104, 983040
  %106 = ashr i32 %105, 8
  %107 = or i32 %101, %106
  %108 = load ptr, ptr %6, align 8, !tbaa !38
  %109 = getelementptr inbounds nuw %struct.UCPTrie, ptr %108, i32 0, i32 6
  %110 = load i8, ptr %109, align 2, !tbaa !36
  %111 = sext i8 %110 to i32
  %112 = shl i32 %111, 6
  %113 = or i32 %107, %112
  %114 = load i32, ptr %11, align 4, !tbaa !7
  %115 = or i32 %113, %114
  %116 = trunc i32 %115 to i16
  %117 = load ptr, ptr %15, align 8, !tbaa !17
  %118 = getelementptr inbounds nuw %struct.UCPTrieHeader, ptr %117, i32 0, i32 1
  store i16 %116, ptr %118, align 4, !tbaa !22
  %119 = load ptr, ptr %6, align 8, !tbaa !38
  %120 = getelementptr inbounds nuw %struct.UCPTrie, ptr %119, i32 0, i32 2
  %121 = load i32, ptr %120, align 8, !tbaa !24
  %122 = trunc i32 %121 to i16
  %123 = load ptr, ptr %15, align 8, !tbaa !17
  %124 = getelementptr inbounds nuw %struct.UCPTrieHeader, ptr %123, i32 0, i32 2
  store i16 %122, ptr %124, align 2, !tbaa !23
  %125 = load ptr, ptr %6, align 8, !tbaa !38
  %126 = getelementptr inbounds nuw %struct.UCPTrie, ptr %125, i32 0, i32 3
  %127 = load i32, ptr %126, align 4, !tbaa !28
  %128 = trunc i32 %127 to i16
  %129 = load ptr, ptr %15, align 8, !tbaa !17
  %130 = getelementptr inbounds nuw %struct.UCPTrieHeader, ptr %129, i32 0, i32 3
  store i16 %128, ptr %130, align 4, !tbaa !27
  %131 = load ptr, ptr %6, align 8, !tbaa !38
  %132 = getelementptr inbounds nuw %struct.UCPTrie, ptr %131, i32 0, i32 10
  %133 = load i16, ptr %132, align 2, !tbaa !30
  %134 = load ptr, ptr %15, align 8, !tbaa !17
  %135 = getelementptr inbounds nuw %struct.UCPTrieHeader, ptr %134, i32 0, i32 4
  store i16 %133, ptr %135, align 2, !tbaa !29
  %136 = load ptr, ptr %6, align 8, !tbaa !38
  %137 = getelementptr inbounds nuw %struct.UCPTrie, ptr %136, i32 0, i32 11
  %138 = load i32, ptr %137, align 8, !tbaa !32
  %139 = trunc i32 %138 to i16
  %140 = load ptr, ptr %15, align 8, !tbaa !17
  %141 = getelementptr inbounds nuw %struct.UCPTrieHeader, ptr %140, i32 0, i32 5
  store i16 %139, ptr %141, align 4, !tbaa !31
  %142 = load ptr, ptr %6, align 8, !tbaa !38
  %143 = getelementptr inbounds nuw %struct.UCPTrie, ptr %142, i32 0, i32 4
  %144 = load i32, ptr %143, align 8, !tbaa !34
  %145 = ashr i32 %144, 9
  %146 = trunc i32 %145 to i16
  %147 = load ptr, ptr %15, align 8, !tbaa !17
  %148 = getelementptr inbounds nuw %struct.UCPTrieHeader, ptr %147, i32 0, i32 6
  store i16 %146, ptr %148, align 2, !tbaa !33
  %149 = load ptr, ptr %14, align 8, !tbaa !45
  %150 = getelementptr inbounds nuw i8, ptr %149, i64 16
  store ptr %150, ptr %14, align 8, !tbaa !45
  br label %151

151:                                              ; preds = %92
  %152 = load ptr, ptr %14, align 8, !tbaa !45
  %153 = load ptr, ptr %6, align 8, !tbaa !38
  %154 = getelementptr inbounds nuw %struct.UCPTrie, ptr %153, i32 0, i32 0
  %155 = load ptr, ptr %154, align 8, !tbaa !41
  %156 = load ptr, ptr %6, align 8, !tbaa !38
  %157 = getelementptr inbounds nuw %struct.UCPTrie, ptr %156, i32 0, i32 2
  %158 = load i32, ptr %157, align 8, !tbaa !24
  %159 = mul nsw i32 %158, 2
  %160 = sext i32 %159 to i64
  call void @llvm.memcpy.p0.p0.i64(ptr align 1 %152, ptr align 2 %155, i64 %160, i1 false)
  br label %161

161:                                              ; preds = %151
  br label %162

162:                                              ; preds = %161
  %163 = load ptr, ptr %6, align 8, !tbaa !38
  %164 = getelementptr inbounds nuw %struct.UCPTrie, ptr %163, i32 0, i32 2
  %165 = load i32, ptr %164, align 8, !tbaa !24
  %166 = mul nsw i32 %165, 2
  %167 = load ptr, ptr %14, align 8, !tbaa !45
  %168 = sext i32 %166 to i64
  %169 = getelementptr inbounds i8, ptr %167, i64 %168
  store ptr %169, ptr %14, align 8, !tbaa !45
  %170 = load i32, ptr %11, align 4, !tbaa !7
  switch i32 %170, label %209 [
    i32 0, label %171
    i32 1, label %184
    i32 2, label %197
  ]

171:                                              ; preds = %162
  br label %172

172:                                              ; preds = %171
  %173 = load ptr, ptr %14, align 8, !tbaa !45
  %174 = load ptr, ptr %6, align 8, !tbaa !38
  %175 = getelementptr inbounds nuw %struct.UCPTrie, ptr %174, i32 0, i32 1
  %176 = load ptr, ptr %175, align 8, !tbaa !42
  %177 = load ptr, ptr %6, align 8, !tbaa !38
  %178 = getelementptr inbounds nuw %struct.UCPTrie, ptr %177, i32 0, i32 3
  %179 = load i32, ptr %178, align 4, !tbaa !28
  %180 = mul nsw i32 %179, 2
  %181 = sext i32 %180 to i64
  call void @llvm.memcpy.p0.p0.i64(ptr align 1 %173, ptr align 2 %176, i64 %181, i1 false)
  br label %182

182:                                              ; preds = %172
  br label %183

183:                                              ; preds = %182
  br label %210

184:                                              ; preds = %162
  br label %185

185:                                              ; preds = %184
  %186 = load ptr, ptr %14, align 8, !tbaa !45
  %187 = load ptr, ptr %6, align 8, !tbaa !38
  %188 = getelementptr inbounds nuw %struct.UCPTrie, ptr %187, i32 0, i32 1
  %189 = load ptr, ptr %188, align 8, !tbaa !42
  %190 = load ptr, ptr %6, align 8, !tbaa !38
  %191 = getelementptr inbounds nuw %struct.UCPTrie, ptr %190, i32 0, i32 3
  %192 = load i32, ptr %191, align 4, !tbaa !28
  %193 = mul nsw i32 %192, 4
  %194 = sext i32 %193 to i64
  call void @llvm.memcpy.p0.p0.i64(ptr align 1 %186, ptr align 4 %189, i64 %194, i1 false)
  br label %195

195:                                              ; preds = %185
  br label %196

196:                                              ; preds = %195
  br label %210

197:                                              ; preds = %162
  br label %198

198:                                              ; preds = %197
  %199 = load ptr, ptr %14, align 8, !tbaa !45
  %200 = load ptr, ptr %6, align 8, !tbaa !38
  %201 = getelementptr inbounds nuw %struct.UCPTrie, ptr %200, i32 0, i32 1
  %202 = load ptr, ptr %201, align 8, !tbaa !42
  %203 = load ptr, ptr %6, align 8, !tbaa !38
  %204 = getelementptr inbounds nuw %struct.UCPTrie, ptr %203, i32 0, i32 3
  %205 = load i32, ptr %204, align 4, !tbaa !28
  %206 = sext i32 %205 to i64
  call void @llvm.memcpy.p0.p0.i64(ptr align 1 %199, ptr align 1 %202, i64 %206, i1 false)
  br label %207

207:                                              ; preds = %198
  br label %208

208:                                              ; preds = %207
  br label %210

209:                                              ; preds = %162
  br label %210

210:                                              ; preds = %209, %208, %196, %183
  %211 = load i32, ptr %13, align 4, !tbaa !11
  store i32 %211, ptr %5, align 4
  store i32 1, ptr %12, align 4
  call void @llvm.lifetime.end.p0(i64 8, ptr %15) #9
  call void @llvm.lifetime.end.p0(i64 8, ptr %14) #9
  br label %212

212:                                              ; preds = %210, %89
  call void @llvm.lifetime.end.p0(i64 4, ptr %13) #9
  br label %213

213:                                              ; preds = %212, %55
  call void @llvm.lifetime.end.p0(i64 4, ptr %11) #9
  call void @llvm.lifetime.end.p0(i64 4, ptr %10) #9
  br label %214

214:                                              ; preds = %213, %20
  %215 = load i32, ptr %5, align 4
  ret i32 %215
}