; Function Attrs: mustprogress nofree norecurse nosync nounwind willreturn memory(readwrite, inaccessiblemem: none) uwtable
define i32 @ucptrie_toBinary_77(ptr noundef readonly captures(none) %0, ptr noundef %1, i32 noundef %2, ptr noundef captures(none) %3) local_unnamed_addr #8 {
  %5 = load i32, ptr %3, align 4, !tbaa !3
  %6 = icmp slt i32 %5, 1
  br i1 %6, label %7, label %97

7:                                                ; preds = %4
  %8 = getelementptr inbounds nuw i8, ptr %0, i64 30
  %9 = load i8, ptr %8, align 2, !tbaa !25
  %10 = getelementptr inbounds nuw i8, ptr %0, i64 31
  %11 = load i8, ptr %10, align 1, !tbaa !26
  %or.cond = icmp ugt i8 %9, 1
  %12 = icmp ugt i8 %11, 2
  %or.cond5 = select i1 %or.cond, i1 true, i1 %12
  %13 = icmp slt i32 %2, 0
  %or.cond7 = or i1 %13, %or.cond5
  br i1 %or.cond7, label %19, label %14

14:                                               ; preds = %7
  %.not = icmp eq i32 %2, 0
  br i1 %.not, label %20, label %15

15:                                               ; preds = %14
  %16 = icmp ne ptr %1, null
  %17 = ptrtoint ptr %1 to i64
  %18 = and i64 %17, 3
  %.not69 = icmp eq i64 %18, 0
  %or.cond71 = and i1 %16, %.not69
  br i1 %or.cond71, label %20, label %19

19:                                               ; preds = %15, %7
  store i32 1, ptr %3, align 4, !tbaa !3
  br label %97

20:                                               ; preds = %15, %14
  %21 = getelementptr inbounds nuw i8, ptr %0, i64 16
  %22 = load i32, ptr %21, align 8, !tbaa !35
  %23 = shl nsw i32 %22, 1
  %24 = add nsw i32 %23, 16
  switch i8 %11, label %default.unreachable [
    i8 0, label %25
    i8 1, label %31
    i8 2, label %36
  ]

25:                                               ; preds = %20
  %26 = getelementptr inbounds nuw i8, ptr %0, i64 20
  %27 = load i32, ptr %26, align 4, !tbaa !28
  %28 = add i32 %27, %22
  %29 = shl i32 %28, 1
  %30 = add i32 %29, 16
  br label %40

31:                                               ; preds = %20
  %32 = getelementptr inbounds nuw i8, ptr %0, i64 20
  %33 = load i32, ptr %32, align 4, !tbaa !28
  %34 = shl nsw i32 %33, 2
  %35 = add nsw i32 %34, %24
  br label %40

36:                                               ; preds = %20
  %37 = getelementptr inbounds nuw i8, ptr %0, i64 20
  %38 = load i32, ptr %37, align 4, !tbaa !28
  %39 = add nsw i32 %38, %24
  br label %40

default.unreachable:                              ; preds = %44, %20
  unreachable

40:                                               ; preds = %36, %31, %25
  %41 = phi i32 [ %38, %36 ], [ %33, %31 ], [ %27, %25 ]
  %.066 = phi i32 [ %39, %36 ], [ %35, %31 ], [ %30, %25 ]
  %42 = icmp slt i32 %2, %.066
  br i1 %42, label %43, label %44

43:                                               ; preds = %40
  store i32 15, ptr %3, align 4, !tbaa !3
  br label %97

44:                                               ; preds = %40
  store i32 1416784179, ptr %1, align 4, !tbaa !7
  %45 = getelementptr inbounds nuw i8, ptr %0, i64 20
  %46 = lshr i32 %41, 4
  %47 = and i32 %46, 61440
  %48 = getelementptr inbounds nuw i8, ptr %0, i64 40
  %49 = load i32, ptr %48, align 8, !tbaa !30
  %50 = lshr i32 %49, 8
  %51 = and i32 %50, 3840
  %52 = shl nuw nsw i8 %9, 6
  %53 = or disjoint i8 %11, %52
  %54 = zext nneg i8 %53 to i32
  %55 = or disjoint i32 %47, %54
  %56 = or disjoint i32 %55, %51
  %57 = trunc nuw i32 %56 to i16
  %58 = getelementptr inbounds nuw i8, ptr %1, i64 4
  store i16 %57, ptr %58, align 4, !tbaa !11
  %59 = trunc i32 %22 to i16
  %60 = getelementptr inbounds nuw i8, ptr %1, i64 6
  store i16 %59, ptr %60, align 2, !tbaa !12
  %61 = trunc i32 %41 to i16
  %62 = getelementptr inbounds nuw i8, ptr %1, i64 8
  store i16 %61, ptr %62, align 4, !tbaa !13
  %63 = getelementptr inbounds nuw i8, ptr %0, i64 38
  %64 = load i16, ptr %63, align 2, !tbaa !29
  %65 = getelementptr inbounds nuw i8, ptr %1, i64 10
  store i16 %64, ptr %65, align 2, !tbaa !14
  %66 = trunc i32 %49 to i16
  %67 = getelementptr inbounds nuw i8, ptr %1, i64 12
  store i16 %66, ptr %67, align 4, !tbaa !15
  %68 = getelementptr inbounds nuw i8, ptr %0, i64 24
  %69 = load i32, ptr %68, align 8, !tbaa !27
  %70 = lshr i32 %69, 9
  %71 = trunc i32 %70 to i16
  %72 = getelementptr inbounds nuw i8, ptr %1, i64 14
  store i16 %71, ptr %72, align 2, !tbaa !16
  %73 = getelementptr inbounds nuw i8, ptr %1, i64 16
  %74 = load ptr, ptr %0, align 8, !tbaa !17
  %75 = sext i32 %23 to i64
  tail call void @llvm.memcpy.p0.p0.i64(ptr nonnull align 1 %73, ptr align 2 %74, i64 %75, i1 false)
  %76 = load i32, ptr %21, align 8, !tbaa !35
  %77 = shl nsw i32 %76, 1
  %78 = sext i32 %77 to i64
  %79 = getelementptr inbounds i8, ptr %73, i64 %78
  switch i8 %11, label %default.unreachable [
    i8 0, label %80
    i8 1, label %86
    i8 2, label %92
  ]

80:                                               ; preds = %44
  %81 = getelementptr inbounds nuw i8, ptr %0, i64 8
  %82 = load ptr, ptr %81, align 8, !tbaa !21
  %83 = load i32, ptr %45, align 4, !tbaa !28
  %84 = shl nsw i32 %83, 1
  %85 = sext i32 %84 to i64
  tail call void @llvm.memcpy.p0.p0.i64(ptr nonnull align 1 %79, ptr align 2 %82, i64 %85, i1 false)
  br label %97

86:                                               ; preds = %44
  %87 = getelementptr inbounds nuw i8, ptr %0, i64 8
  %88 = load ptr, ptr %87, align 8, !tbaa !21
  %89 = load i32, ptr %45, align 4, !tbaa !28
  %90 = shl nsw i32 %89, 2
  %91 = sext i32 %90 to i64
  tail call void @llvm.memcpy.p0.p0.i64(ptr nonnull align 1 %79, ptr align 4 %88, i64 %91, i1 false)
  br label %97

92:                                               ; preds = %44
  %93 = getelementptr inbounds nuw i8, ptr %0, i64 8
  %94 = load ptr, ptr %93, align 8, !tbaa !21
  %95 = load i32, ptr %45, align 4, !tbaa !28
  %96 = sext i32 %95 to i64
  tail call void @llvm.memcpy.p0.p0.i64(ptr nonnull align 1 %79, ptr align 1 %94, i64 %96, i1 false)
  br label %97

97:                                               ; preds = %19, %80, %86, %92, %43, %4
  %.0 = phi i32 [ 0, %4 ], [ 0, %19 ], [ %.066, %80 ], [ %.066, %86 ], [ %.066, %92 ], [ %.066, %43 ]
  ret i32 %.0
}